; Function Attrs: mustprogress nofree norecurse nosync nounwind willreturn memory(read, argmem: write, inaccessiblemem: none) uwtable
define hidden void @_ZN10VtableBlobC2EPKci(ptr nocapture noundef nonnull writeonly align 8 dereferenceable(54) %0, ptr noundef %1, i32 noundef %2) unnamed_addr #3 align 2 {
  store ptr getelementptr inbounds inrange(-16, 56) (i8, ptr @_ZTV8CodeBlob, i64 16), ptr %0, align 8
  %4 = getelementptr inbounds i8, ptr %0, i64 8
  store ptr null, ptr %4, align 8
  %5 = getelementptr inbounds i8, ptr %0, i64 16
  store ptr %1, ptr %5, align 8
  %6 = getelementptr inbounds i8, ptr %0, i64 24
  store i32 %2, ptr %6, align 8
  %7 = getelementptr inbounds i8, ptr %0, i64 28
  store i32 0, ptr %7, align 4
  %8 = getelementptr inbounds i8, ptr %0, i64 32
  %9 = load i64, ptr @CodeEntryAlignment, align 8
  %10 = trunc i64 %9 to i32
  %11 = add i32 %10, 63
  %12 = sub i32 0, %10
  %13 = and i32 %11, %12
  %14 = add nsw i32 %13, -8
  store i32 %14, ptr %8, align 8
  %15 = getelementptr inbounds i8, ptr %0, i64 36
  store i32 %14, ptr %15, align 4
  %16 = getelementptr inbounds i8, ptr %0, i64 40
  store i32 %2, ptr %16, align 8
  %17 = getelementptr inbounds i8, ptr %0, i64 44
  store i32 0, ptr %17, align 4
  %18 = getelementptr inbounds i8, ptr %0, i64 48
  store i16 56, ptr %18, align 8
  %19 = getelementptr inbounds i8, ptr %0, i64 50
  store i16 -1, ptr %19, align 2
  %20 = getelementptr inbounds i8, ptr %0, i64 52
  store i8 4, ptr %20, align 4
  %21 = getelementptr inbounds i8, ptr %0, i64 53
  store i8 0, ptr %21, align 1
  store ptr getelementptr inbounds inrange(-16, 56) (i8, ptr @_ZTV10VtableBlob, i64 16), ptr %0, align 8
  ret void
}